; Function Attrs: mustprogress nounwind uwtable
define internal fastcc void @_ZNSt6vectorIN5arrow12_GLOBAL__N_114SchemaExporterESaIS2_EED2Ev(ptr nocapture noundef nonnull readonly align 8 dereferenceable(24) %this) unnamed_addr #1 align 2 personality ptr @__gxx_personality_v0 {
entry:
  %0 = load ptr, ptr %this, align 8
  %_M_finish = getelementptr inbounds i8, ptr %this, i64 8
  %1 = load ptr, ptr %_M_finish, align 8
  tail call fastcc void @_ZSt8_DestroyIPN5arrow12_GLOBAL__N_114SchemaExporterEEvT_S4_(ptr noundef %0, ptr noundef %1)
  %this.val = load ptr, ptr %this, align 8
  %tobool.not.i.i = icmp eq ptr %this.val, null
  br i1 %tobool.not.i.i, label %_ZNSt12_Vector_baseIN5arrow12_GLOBAL__N_114SchemaExporterESaIS2_EED2Ev.exit, label %if.then.i.i

if.then.i.i:                                      ; preds = %entry
  tail call void @_ZdlPv(ptr noundef nonnull %this.val) #26
  br label %_ZNSt12_Vector_baseIN5arrow12_GLOBAL__N_114SchemaExporterESaIS2_EED2Ev.exit

_ZNSt12_Vector_baseIN5arrow12_GLOBAL__N_114SchemaExporterESaIS2_EED2Ev.exit: ; preds = %entry, %if.then.i.i
  ret void
}